target datalayout = "e-m:e-p270:32:32-p271:32:32-p272:64:64-i64:64-i128:128-f80:128-n8:16:32:64-S128"
target triple = "x86_64-pc-linux-gnu"

%struct.cvec = type { i32, i32, ptr, i32, i32, ptr, i32 }
%struct.pg_ctype_cache = type { ptr, ptr, %struct.cvec, ptr }

@pg_regex_strategy = internal global i32 0, align 4
@pg_regex_locale = internal global ptr null, align 8
@pg_ctype_cache_list = internal global ptr null, align 8

; Function Attrs: nounwind uwtable
define internal ptr @pg_ctype_get_cache(ptr noundef %0, i32 noundef %1) #0 {
  %3 = alloca ptr, align 8
  %4 = alloca ptr, align 8
  %5 = alloca i32, align 4
  %6 = alloca ptr, align 8
  %7 = alloca i32, align 4
  %8 = alloca i32, align 4
  %9 = alloca i32, align 4
  %10 = alloca ptr, align 8
  %11 = alloca i32, align 4
  store ptr %0, ptr %4, align 8
  store i32 %1, ptr %5, align 4
  call void @llvm.lifetime.start.p0(i64 8, ptr %6) #12
  call void @llvm.lifetime.start.p0(i64 4, ptr %7) #12
  call void @llvm.lifetime.start.p0(i64 4, ptr %8) #12
  call void @llvm.lifetime.start.p0(i64 4, ptr %9) #12
  call void @llvm.lifetime.start.p0(i64 8, ptr %10) #12
  %12 = load ptr, ptr @pg_ctype_cache_list, align 8
  store ptr %12, ptr %6, align 8
  br label %13

13:                                               ; preds = %32, %2
  %14 = load ptr, ptr %6, align 8
  %15 = icmp ne ptr %14, null
  br i1 %15, label %16, label %36

16:                                               ; preds = %13
  %17 = load ptr, ptr %6, align 8
  %18 = getelementptr inbounds nuw %struct.pg_ctype_cache, ptr %17, i32 0, i32 0
  %19 = load ptr, ptr %18, align 8
  %20 = load ptr, ptr %4, align 8
  %21 = icmp eq ptr %19, %20
  br i1 %21, label %22, label %31

22:                                               ; preds = %16
  %23 = load ptr, ptr %6, align 8
  %24 = getelementptr inbounds nuw %struct.pg_ctype_cache, ptr %23, i32 0, i32 1
  %25 = load ptr, ptr %24, align 8
  %26 = load ptr, ptr @pg_regex_locale, align 8
  %27 = icmp eq ptr %25, %26
  br i1 %27, label %28, label %31

28:                                               ; preds = %22
  %29 = load ptr, ptr %6, align 8
  %30 = getelementptr inbounds nuw %struct.pg_ctype_cache, ptr %29, i32 0, i32 2
  store ptr %30, ptr %3, align 8
  store i32 1, ptr %11, align 4
  br label %281

31:                                               ; preds = %22, %16
  br label %32

32:                                               ; preds = %31
  %33 = load ptr, ptr %6, align 8
  %34 = getelementptr inbounds nuw %struct.pg_ctype_cache, ptr %33, i32 0, i32 3
  %35 = load ptr, ptr %34, align 8
  store ptr %35, ptr %6, align 8
  br label %13, !llvm.loop !58

36:                                               ; preds = %13
  %37 = call noalias ptr @malloc(i64 noundef 64) #15
  store ptr %37, ptr %6, align 8
  %38 = load ptr, ptr %6, align 8
  %39 = icmp eq ptr %38, null
  br i1 %39, label %40, label %41

40:                                               ; preds = %36
  store ptr null, ptr %3, align 8
  store i32 1, ptr %11, align 4
  br label %281

41:                                               ; preds = %36
  %42 = load ptr, ptr %4, align 8
  %43 = load ptr, ptr %6, align 8
  %44 = getelementptr inbounds nuw %struct.pg_ctype_cache, ptr %43, i32 0, i32 0
  store ptr %42, ptr %44, align 8
  %45 = load ptr, ptr @pg_regex_locale, align 8
  %46 = load ptr, ptr %6, align 8
  %47 = getelementptr inbounds nuw %struct.pg_ctype_cache, ptr %46, i32 0, i32 1
  store ptr %45, ptr %47, align 8
  %48 = load ptr, ptr %6, align 8
  %49 = getelementptr inbounds nuw %struct.pg_ctype_cache, ptr %48, i32 0, i32 2
  %50 = getelementptr inbounds nuw %struct.cvec, ptr %49, i32 0, i32 0
  store i32 0, ptr %50, align 8
  %51 = load ptr, ptr %6, align 8
  %52 = getelementptr inbounds nuw %struct.pg_ctype_cache, ptr %51, i32 0, i32 2
  %53 = getelementptr inbounds nuw %struct.cvec, ptr %52, i32 0, i32 1
  store i32 128, ptr %53, align 4
  %54 = load ptr, ptr %6, align 8
  %55 = getelementptr inbounds nuw %struct.pg_ctype_cache, ptr %54, i32 0, i32 2
  %56 = getelementptr inbounds nuw %struct.cvec, ptr %55, i32 0, i32 1
  %57 = load i32, ptr %56, align 4
  %58 = sext i32 %57 to i64
  %59 = mul i64 %58, 4
  %60 = call noalias ptr @malloc(i64 noundef %59) #15
  %61 = load ptr, ptr %6, align 8
  %62 = getelementptr inbounds nuw %struct.pg_ctype_cache, ptr %61, i32 0, i32 2
  %63 = getelementptr inbounds nuw %struct.cvec, ptr %62, i32 0, i32 2
  store ptr %60, ptr %63, align 8
  %64 = load ptr, ptr %6, align 8
  %65 = getelementptr inbounds nuw %struct.pg_ctype_cache, ptr %64, i32 0, i32 2
  %66 = getelementptr inbounds nuw %struct.cvec, ptr %65, i32 0, i32 3
  store i32 0, ptr %66, align 8
  %67 = load ptr, ptr %6, align 8
  %68 = getelementptr inbounds nuw %struct.pg_ctype_cache, ptr %67, i32 0, i32 2
  %69 = getelementptr inbounds nuw %struct.cvec, ptr %68, i32 0, i32 4
  store i32 64, ptr %69, align 4
  %70 = load ptr, ptr %6, align 8
  %71 = getelementptr inbounds nuw %struct.pg_ctype_cache, ptr %70, i32 0, i32 2
  %72 = getelementptr inbounds nuw %struct.cvec, ptr %71, i32 0, i32 4
  %73 = load i32, ptr %72, align 4
  %74 = sext i32 %73 to i64
  %75 = mul i64 %74, 4
  %76 = mul i64 %75, 2
  %77 = call noalias ptr @malloc(i64 noundef %76) #15
  %78 = load ptr, ptr %6, align 8
  %79 = getelementptr inbounds nuw %struct.pg_ctype_cache, ptr %78, i32 0, i32 2
  %80 = getelementptr inbounds nuw %struct.cvec, ptr %79, i32 0, i32 5
  store ptr %77, ptr %80, align 8
  %81 = load ptr, ptr %6, align 8
  %82 = getelementptr inbounds nuw %struct.pg_ctype_cache, ptr %81, i32 0, i32 2
  %83 = getelementptr inbounds nuw %struct.cvec, ptr %82, i32 0, i32 2
  %84 = load ptr, ptr %83, align 8
  %85 = icmp eq ptr %84, null
  br i1 %85, label %92, label %86

86:                                               ; preds = %41
  %87 = load ptr, ptr %6, align 8
  %88 = getelementptr inbounds nuw %struct.pg_ctype_cache, ptr %87, i32 0, i32 2
  %89 = getelementptr inbounds nuw %struct.cvec, ptr %88, i32 0, i32 5
  %90 = load ptr, ptr %89, align 8
  %91 = icmp eq ptr %90, null
  br i1 %91, label %92, label %93

92:                                               ; preds = %86, %41
  br label %271

93:                                               ; preds = %86
  %94 = load i32, ptr %5, align 4
  %95 = load ptr, ptr %6, align 8
  %96 = getelementptr inbounds nuw %struct.pg_ctype_cache, ptr %95, i32 0, i32 2
  %97 = getelementptr inbounds nuw %struct.cvec, ptr %96, i32 0, i32 6
  store i32 %94, ptr %97, align 8
  %98 = load i32, ptr @pg_regex_strategy, align 4
  switch i32 %98, label %110 [
    i32 0, label %99
    i32 1, label %103
    i32 2, label %104
    i32 3, label %105
    i32 4, label %109
  ]

99:                                               ; preds = %93
  store i32 127, ptr %7, align 4
  %100 = load ptr, ptr %6, align 8
  %101 = getelementptr inbounds nuw %struct.pg_ctype_cache, ptr %100, i32 0, i32 2
  %102 = getelementptr inbounds nuw %struct.cvec, ptr %101, i32 0, i32 6
  store i32 -1, ptr %102, align 8
  br label %111

103:                                              ; preds = %93
  store i32 2047, ptr %7, align 4
  br label %111

104:                                              ; preds = %93
  store i32 2047, ptr %7, align 4
  br label %111

105:                                              ; preds = %93
  store i32 255, ptr %7, align 4
  %106 = load ptr, ptr %6, align 8
  %107 = getelementptr inbounds nuw %struct.pg_ctype_cache, ptr %106, i32 0, i32 2
  %108 = getelementptr inbounds nuw %struct.cvec, ptr %107, i32 0, i32 6
  store i32 -1, ptr %108, align 8
  br label %111

109:                                              ; preds = %93
  store i32 2047, ptr %7, align 4
  br label %111

110:                                              ; preds = %93
  store i32 0, ptr %7, align 4
  br label %111

111:                                              ; preds = %110, %109, %105, %104, %103, %99
  store i32 0, ptr %9, align 4
  store i32 0, ptr %8, align 4
  br label %112

112:                                              ; preds = %138, %111
  %113 = load i32, ptr %8, align 4
  %114 = load i32, ptr %7, align 4
  %115 = icmp ule i32 %113, %114
  br i1 %115, label %116, label %141

116:                                              ; preds = %112
  %117 = load ptr, ptr %4, align 8
  %118 = load i32, ptr %8, align 4
  %119 = call i32 %117(i32 noundef %118)
  %120 = icmp ne i32 %119, 0
  br i1 %120, label %121, label %124

121:                                              ; preds = %116
  %122 = load i32, ptr %9, align 4
  %123 = add i32 %122, 1
  store i32 %123, ptr %9, align 4
  br label %137

124:                                              ; preds = %116
  %125 = load i32, ptr %9, align 4
  %126 = icmp sgt i32 %125, 0
  br i1 %126, label %127, label %136

127:                                              ; preds = %124
  %128 = load ptr, ptr %6, align 8
  %129 = load i32, ptr %8, align 4
  %130 = load i32, ptr %9, align 4
  %131 = sub i32 %129, %130
  %132 = load i32, ptr %9, align 4
  %133 = call zeroext i1 @store_match(ptr noundef %128, i32 noundef %131, i32 noundef %132)
  br i1 %133, label %135, label %134

134:                                              ; preds = %127
  br label %271

135:                                              ; preds = %127
  store i32 0, ptr %9, align 4
  br label %136

136:                                              ; preds = %135, %124
  br label %137

137:                                              ; preds = %136, %121
  br label %138

138:                                              ; preds = %137
  %139 = load i32, ptr %8, align 4
  %140 = add i32 %139, 1
  store i32 %140, ptr %8, align 4
  br label %112, !llvm.loop !59

141:                                              ; preds = %112
  %142 = load i32, ptr %9, align 4
  %143 = icmp sgt i32 %142, 0
  br i1 %143, label %144, label %153

144:                                              ; preds = %141
  %145 = load ptr, ptr %6, align 8
  %146 = load i32, ptr %8, align 4
  %147 = load i32, ptr %9, align 4
  %148 = sub i32 %146, %147
  %149 = load i32, ptr %9, align 4
  %150 = call zeroext i1 @store_match(ptr noundef %145, i32 noundef %148, i32 noundef %149)
  br i1 %150, label %152, label %151

151:                                              ; preds = %144
  br label %271

152:                                              ; preds = %144
  br label %153

153:                                              ; preds = %152, %141
  %154 = load ptr, ptr %6, align 8
  %155 = getelementptr inbounds nuw %struct.pg_ctype_cache, ptr %154, i32 0, i32 2
  %156 = getelementptr inbounds nuw %struct.cvec, ptr %155, i32 0, i32 0
  %157 = load i32, ptr %156, align 8
  %158 = icmp eq i32 %157, 0
  br i1 %158, label %159, label %170

159:                                              ; preds = %153
  %160 = load ptr, ptr %6, align 8
  %161 = getelementptr inbounds nuw %struct.pg_ctype_cache, ptr %160, i32 0, i32 2
  %162 = getelementptr inbounds nuw %struct.cvec, ptr %161, i32 0, i32 2
  %163 = load ptr, ptr %162, align 8
  call void @free(ptr noundef %163) #12
  %164 = load ptr, ptr %6, align 8
  %165 = getelementptr inbounds nuw %struct.pg_ctype_cache, ptr %164, i32 0, i32 2
  %166 = getelementptr inbounds nuw %struct.cvec, ptr %165, i32 0, i32 2
  store ptr null, ptr %166, align 8
  %167 = load ptr, ptr %6, align 8
  %168 = getelementptr inbounds nuw %struct.pg_ctype_cache, ptr %167, i32 0, i32 2
  %169 = getelementptr inbounds nuw %struct.cvec, ptr %168, i32 0, i32 1
  store i32 0, ptr %169, align 4
  br label %208

170:                                              ; preds = %153
  %171 = load ptr, ptr %6, align 8
  %172 = getelementptr inbounds nuw %struct.pg_ctype_cache, ptr %171, i32 0, i32 2
  %173 = getelementptr inbounds nuw %struct.cvec, ptr %172, i32 0, i32 0
  %174 = load i32, ptr %173, align 8
  %175 = load ptr, ptr %6, align 8
  %176 = getelementptr inbounds nuw %struct.pg_ctype_cache, ptr %175, i32 0, i32 2
  %177 = getelementptr inbounds nuw %struct.cvec, ptr %176, i32 0, i32 1
  %178 = load i32, ptr %177, align 4
  %179 = icmp slt i32 %174, %178
  br i1 %179, label %180, label %207

180:                                              ; preds = %170
  %181 = load ptr, ptr %6, align 8
  %182 = getelementptr inbounds nuw %struct.pg_ctype_cache, ptr %181, i32 0, i32 2
  %183 = getelementptr inbounds nuw %struct.cvec, ptr %182, i32 0, i32 2
  %184 = load ptr, ptr %183, align 8
  %185 = load ptr, ptr %6, align 8
  %186 = getelementptr inbounds nuw %struct.pg_ctype_cache, ptr %185, i32 0, i32 2
  %187 = getelementptr inbounds nuw %struct.cvec, ptr %186, i32 0, i32 0
  %188 = load i32, ptr %187, align 8
  %189 = sext i32 %188 to i64
  %190 = mul i64 %189, 4
  %191 = call ptr @realloc(ptr noundef %184, i64 noundef %190) #16
  store ptr %191, ptr %10, align 8
  %192 = load ptr, ptr %10, align 8
  %193 = icmp eq ptr %192, null
  br i1 %193, label %194, label %195

194:                                              ; preds = %180
  br label %271

195:                                              ; preds = %180
  %196 = load ptr, ptr %10, align 8
  %197 = load ptr, ptr %6, align 8
  %198 = getelementptr inbounds nuw %struct.pg_ctype_cache, ptr %197, i32 0, i32 2
  %199 = getelementptr inbounds nuw %struct.cvec, ptr %198, i32 0, i32 2
  store ptr %196, ptr %199, align 8
  %200 = load ptr, ptr %6, align 8
  %201 = getelementptr inbounds nuw %struct.pg_ctype_cache, ptr %200, i32 0, i32 2
  %202 = getelementptr inbounds nuw %struct.cvec, ptr %201, i32 0, i32 0
  %203 = load i32, ptr %202, align 8
  %204 = load ptr, ptr %6, align 8
  %205 = getelementptr inbounds nuw %struct.pg_ctype_cache, ptr %204, i32 0, i32 2
  %206 = getelementptr inbounds nuw %struct.cvec, ptr %205, i32 0, i32 1
  store i32 %203, ptr %206, align 4
  br label %207

207:                                              ; preds = %195, %170
  br label %208

208:                                              ; preds = %207, %159
  %209 = load ptr, ptr %6, align 8
  %210 = getelementptr inbounds nuw %struct.pg_ctype_cache, ptr %209, i32 0, i32 2
  %211 = getelementptr inbounds nuw %struct.cvec, ptr %210, i32 0, i32 3
  %212 = load i32, ptr %211, align 8
  %213 = icmp eq i32 %212, 0
  br i1 %213, label %214, label %225

214:                                              ; preds = %208
  %215 = load ptr, ptr %6, align 8
  %216 = getelementptr inbounds nuw %struct.pg_ctype_cache, ptr %215, i32 0, i32 2
  %217 = getelementptr inbounds nuw %struct.cvec, ptr %216, i32 0, i32 5
  %218 = load ptr, ptr %217, align 8
  call void @free(ptr noundef %218) #12
  %219 = load ptr, ptr %6, align 8
  %220 = getelementptr inbounds nuw %struct.pg_ctype_cache, ptr %219, i32 0, i32 2
  %221 = getelementptr inbounds nuw %struct.cvec, ptr %220, i32 0, i32 5
  store ptr null, ptr %221, align 8
  %222 = load ptr, ptr %6, align 8
  %223 = getelementptr inbounds nuw %struct.pg_ctype_cache, ptr %222, i32 0, i32 2
  %224 = getelementptr inbounds nuw %struct.cvec, ptr %223, i32 0, i32 4
  store i32 0, ptr %224, align 4
  br label %264

225:                                              ; preds = %208
  %226 = load ptr, ptr %6, align 8
  %227 = getelementptr inbounds nuw %struct.pg_ctype_cache, ptr %226, i32 0, i32 2
  %228 = getelementptr inbounds nuw %struct.cvec, ptr %227, i32 0, i32 3
  %229 = load i32, ptr %228, align 8
  %230 = load ptr, ptr %6, align 8
  %231 = getelementptr inbounds nuw %struct.pg_ctype_cache, ptr %230, i32 0, i32 2
  %232 = getelementptr inbounds nuw %struct.cvec, ptr %231, i32 0, i32 4
  %233 = load i32, ptr %232, align 4
  %234 = icmp slt i32 %229, %233
  br i1 %234, label %235, label %263

235:                                              ; preds = %225
  %236 = load ptr, ptr %6, align 8
  %237 = getelementptr inbounds nuw %struct.pg_ctype_cache, ptr %236, i32 0, i32 2
  %238 = getelementptr inbounds nuw %struct.cvec, ptr %237, i32 0, i32 5
  %239 = load ptr, ptr %238, align 8
  %240 = load ptr, ptr %6, align 8
  %241 = getelementptr inbounds nuw %struct.pg_ctype_cache, ptr %240, i32 0, i32 2
  %242 = getelementptr inbounds nuw %struct.cvec, ptr %241, i32 0, i32 3
  %243 = load i32, ptr %242, align 8
  %244 = sext i32 %243 to i64
  %245 = mul i64 %244, 4
  %246 = mul i64 %245, 2
  %247 = call ptr @realloc(ptr noundef %239, i64 noundef %246) #16
  store ptr %247, ptr %10, align 8
  %248 = load ptr, ptr %10, align 8
  %249 = icmp eq ptr %248, null
  br i1 %249, label %250, label %251

250:                                              ; preds = %235
  br label %271

251:                                              ; preds = %235
  %252 = load ptr, ptr %10, align 8
  %253 = load ptr, ptr %6, align 8
  %254 = getelementptr inbounds nuw %struct.pg_ctype_cache, ptr %253, i32 0, i32 2
  %255 = getelementptr inbounds nuw %struct.cvec, ptr %254, i32 0, i32 5
  store ptr %252, ptr %255, align 8
  %256 = load ptr, ptr %6, align 8
  %257 = getelementptr inbounds nuw %struct.pg_ctype_cache, ptr %256, i32 0, i32 2
  %258 = getelementptr inbounds nuw %struct.cvec, ptr %257, i32 0, i32 3
  %259 = load i32, ptr %258, align 8
  %260 = load ptr, ptr %6, align 8
  %261 = getelementptr inbounds nuw %struct.pg_ctype_cache, ptr %260, i32 0, i32 2
  %262 = getelementptr inbounds nuw %struct.cvec, ptr %261, i32 0, i32 4
  store i32 %259, ptr %262, align 4
  br label %263

263:                                              ; preds = %251, %225
  br label %264

264:                                              ; preds = %263, %214
  %265 = load ptr, ptr @pg_ctype_cache_list, align 8
  %266 = load ptr, ptr %6, align 8
  %267 = getelementptr inbounds nuw %struct.pg_ctype_cache, ptr %266, i32 0, i32 3
  store ptr %265, ptr %267, align 8
  %268 = load ptr, ptr %6, align 8
  store ptr %268, ptr @pg_ctype_cache_list, align 8
  %269 = load ptr, ptr %6, align 8
  %270 = getelementptr inbounds nuw %struct.pg_ctype_cache, ptr %269, i32 0, i32 2
  store ptr %270, ptr %3, align 8
  store i32 1, ptr %11, align 4
  br label %281

271:                                              ; preds = %250, %194, %151, %134, %92
  %272 = load ptr, ptr %6, align 8
  %273 = getelementptr inbounds nuw %struct.pg_ctype_cache, ptr %272, i32 0, i32 2
  %274 = getelementptr inbounds nuw %struct.cvec, ptr %273, i32 0, i32 2
  %275 = load ptr, ptr %274, align 8
  call void @free(ptr noundef %275) #12
  %276 = load ptr, ptr %6, align 8
  %277 = getelementptr inbounds nuw %struct.pg_ctype_cache, ptr %276, i32 0, i32 2
  %278 = getelementptr inbounds nuw %struct.cvec, ptr %277, i32 0, i32 5
  %279 = load ptr, ptr %278, align 8
  call void @free(ptr noundef %279) #12
  %280 = load ptr, ptr %6, align 8
  call void @free(ptr noundef %280) #12
  store ptr null, ptr %3, align 8
  store i32 1, ptr %11, align 4
  br label %281

281:                                              ; preds = %271, %264, %40, %28
  call void @llvm.lifetime.end.p0(i64 8, ptr %10) #12
  call void @llvm.lifetime.end.p0(i64 4, ptr %9) #12
  call void @llvm.lifetime.end.p0(i64 4, ptr %8) #12
  call void @llvm.lifetime.end.p0(i64 4, ptr %7) #12
  call void @llvm.lifetime.end.p0(i64 8, ptr %6) #12
  %282 = load ptr, ptr %3, align 8
  ret ptr %282
}