; Function Attrs: nounwind uwtable
define internal fastcc ptr @pg_ctype_get_cache(ptr noundef %0, i32 noundef range(i32 0, 14) %1) unnamed_addr #0 {
  %.07486 = load ptr, ptr @pg_ctype_cache_list, align 8
  %.not87 = icmp eq ptr %.07486, null
  br i1 %.not87, label %._crit_edge, label %.lr.ph

.lr.ph:                                           ; preds = %2
  %3 = load ptr, ptr @pg_regex_locale, align 8
  br label %4

4:                                                ; preds = %.lr.ph, %13
  %.07488 = phi ptr [ %.07486, %.lr.ph ], [ %.074, %13 ]
  %5 = load ptr, ptr %.07488, align 8
  %6 = icmp eq ptr %5, %0
  br i1 %6, label %7, label %13

7:                                                ; preds = %4
  %8 = getelementptr inbounds nuw i8, ptr %.07488, i64 8
  %9 = load ptr, ptr %8, align 8
  %10 = icmp eq ptr %9, %3
  br i1 %10, label %11, label %13

11:                                               ; preds = %7
  %12 = getelementptr inbounds nuw i8, ptr %.07488, i64 16
  br label %83

13:                                               ; preds = %4, %7
  %14 = getelementptr inbounds nuw i8, ptr %.07488, i64 56
  %.074 = load ptr, ptr %14, align 8
  %.not = icmp eq ptr %.074, null
  br i1 %.not, label %._crit_edge, label %4, !llvm.loop !123

._crit_edge:                                      ; preds = %13, %2
  %15 = tail call noalias dereferenceable_or_null(64) ptr @malloc(i64 noundef 64) #23
  %16 = icmp eq ptr %15, null
  br i1 %16, label %83, label %17

17:                                               ; preds = %._crit_edge
  store ptr %0, ptr %15, align 8
  %18 = load ptr, ptr @pg_regex_locale, align 8
  %19 = getelementptr inbounds nuw i8, ptr %15, i64 8
  store ptr %18, ptr %19, align 8
  %20 = getelementptr inbounds nuw i8, ptr %15, i64 16
  store i32 0, ptr %20, align 8
  %21 = getelementptr inbounds nuw i8, ptr %15, i64 20
  store i32 128, ptr %21, align 4
  %22 = tail call noalias dereferenceable_or_null(512) ptr @malloc(i64 noundef 512) #23
  %23 = getelementptr inbounds nuw i8, ptr %15, i64 24
  store ptr %22, ptr %23, align 8
  %24 = getelementptr inbounds nuw i8, ptr %15, i64 32
  store i32 0, ptr %24, align 8
  %25 = getelementptr inbounds nuw i8, ptr %15, i64 36
  store i32 64, ptr %25, align 4
  %26 = tail call noalias dereferenceable_or_null(512) ptr @malloc(i64 noundef 512) #23
  %27 = getelementptr inbounds nuw i8, ptr %15, i64 40
  store ptr %26, ptr %27, align 8
  %28 = icmp eq ptr %22, null
  %29 = icmp eq ptr %26, null
  %or.cond = or i1 %28, %29
  br i1 %or.cond, label %.loopexit, label %30

30:                                               ; preds = %17
  %31 = getelementptr inbounds nuw i8, ptr %15, i64 48
  store i32 %1, ptr %31, align 8
  %32 = load i32, ptr @pg_regex_strategy, align 4
  switch i32 %32, label %default.unreachable [
    i32 0, label %.sink.split
    i32 1, label %34
    i32 2, label %34
    i32 3, label %33
    i32 4, label %34
  ]

33:                                               ; preds = %30
  br label %.sink.split

default.unreachable:                              ; preds = %30
  unreachable

.sink.split:                                      ; preds = %30, %33
  %.073.ph = phi i32 [ 256, %33 ], [ 128, %30 ]
  store i32 -1, ptr %31, align 8
  br label %34

34:                                               ; preds = %.sink.split, %30, %30, %30
  %.073 = phi i32 [ 2048, %30 ], [ 2048, %30 ], [ 2048, %30 ], [ %.073.ph, %.sink.split ]
  br label %.backedge

.backedge:                                        ; preds = %.backedge.backedge, %34
  %.090 = phi i32 [ 0, %34 ], [ %.090.be, %.backedge.backedge ]
  %.07289 = phi i32 [ 0, %34 ], [ %.07289.be, %.backedge.backedge ]
  %35 = tail call i32 %0(i32 noundef %.07289) #20
  %.not82 = icmp eq i32 %35, 0
  br i1 %.not82, label %38, label %36

36:                                               ; preds = %.backedge
  %37 = add i32 %.090, 1
  br label %43

38:                                               ; preds = %.backedge
  %39 = icmp sgt i32 %.090, 0
  br i1 %39, label %40, label %43

40:                                               ; preds = %38
  %41 = sub nsw i32 %.07289, %.090
  %42 = tail call fastcc zeroext i1 @store_match(ptr noundef %15, i32 noundef %41, i32 noundef %.090)
  br i1 %42, label %.thread, label %.loopexit

43:                                               ; preds = %36, %38
  %.1 = phi i32 [ %37, %36 ], [ %.090, %38 ]
  %44 = add nuw nsw i32 %.07289, 1
  %exitcond.not = icmp eq i32 %44, %.073
  br i1 %exitcond.not, label %46, label %.backedge.backedge

.backedge.backedge:                               ; preds = %43, %.thread
  %.090.be = phi i32 [ %.1, %43 ], [ 0, %.thread ]
  %.07289.be = phi i32 [ %44, %43 ], [ %45, %.thread ]
  br label %.backedge, !llvm.loop !124

.thread:                                          ; preds = %40
  %45 = add nuw nsw i32 %.07289, 1
  %exitcond.not93 = icmp eq i32 %45, %.073
  br i1 %exitcond.not93, label %.thread95, label %.backedge.backedge

46:                                               ; preds = %43
  %47 = icmp sgt i32 %.1, 0
  br i1 %47, label %48, label %.thread95

48:                                               ; preds = %46
  %49 = sub nsw i32 %.073, %.1
  %50 = tail call fastcc zeroext i1 @store_match(ptr noundef %15, i32 noundef %49, i32 noundef %.1)
  br i1 %50, label %.thread95, label %.loopexit

.thread95:                                        ; preds = %.thread, %48, %46
  %51 = load i32, ptr %20, align 8
  %52 = icmp eq i32 %51, 0
  br i1 %52, label %53, label %55

53:                                               ; preds = %.thread95
  %54 = load ptr, ptr %23, align 8
  tail call void @free(ptr noundef %54) #20
  br label %.sink.split98

55:                                               ; preds = %.thread95
  %56 = load i32, ptr %21, align 4
  %57 = icmp slt i32 %51, %56
  br i1 %57, label %58, label %64

58:                                               ; preds = %55
  %59 = load ptr, ptr %23, align 8
  %60 = sext i32 %51 to i64
  %61 = shl nsw i64 %60, 2
  %62 = tail call ptr @realloc(ptr noundef %59, i64 noundef %61) #24
  %63 = icmp eq ptr %62, null
  br i1 %63, label %.loopexit, label %.sink.split98

.sink.split98:                                    ; preds = %58, %53
  %.sink99 = phi ptr [ null, %53 ], [ %62, %58 ]
  %.sink = phi i32 [ 0, %53 ], [ %51, %58 ]
  store ptr %.sink99, ptr %23, align 8
  store i32 %.sink, ptr %21, align 4
  br label %64

64:                                               ; preds = %.sink.split98, %55
  %65 = load i32, ptr %24, align 8
  %66 = icmp eq i32 %65, 0
  br i1 %66, label %67, label %69

67:                                               ; preds = %64
  %68 = load ptr, ptr %27, align 8
  tail call void @free(ptr noundef %68) #20
  br label %.sink.split100

69:                                               ; preds = %64
  %70 = load i32, ptr %25, align 4
  %71 = icmp slt i32 %65, %70
  br i1 %71, label %72, label %78

72:                                               ; preds = %69
  %73 = load ptr, ptr %27, align 8
  %74 = sext i32 %65 to i64
  %75 = shl nsw i64 %74, 3
  %76 = tail call ptr @realloc(ptr noundef %73, i64 noundef %75) #24
  %77 = icmp eq ptr %76, null
  br i1 %77, label %.loopexit, label %.sink.split100

.sink.split100:                                   ; preds = %72, %67
  %.sink102 = phi ptr [ null, %67 ], [ %76, %72 ]
  %.sink101 = phi i32 [ 0, %67 ], [ %65, %72 ]
  store ptr %.sink102, ptr %27, align 8
  store i32 %.sink101, ptr %25, align 4
  br label %78

78:                                               ; preds = %.sink.split100, %69
  %79 = load ptr, ptr @pg_ctype_cache_list, align 8
  %80 = getelementptr inbounds nuw i8, ptr %15, i64 56
  store ptr %79, ptr %80, align 8
  store ptr %15, ptr @pg_ctype_cache_list, align 8
  br label %83

.loopexit:                                        ; preds = %40, %72, %58, %48, %17
  %81 = load ptr, ptr %23, align 8
  tail call void @free(ptr noundef %81) #20
  %82 = load ptr, ptr %27, align 8
  tail call void @free(ptr noundef %82) #20
  tail call void @free(ptr noundef nonnull %15) #20
  br label %83

83:                                               ; preds = %._crit_edge, %.loopexit, %78, %11
  %.075 = phi ptr [ %12, %11 ], [ null, %.loopexit ], [ %20, %78 ], [ null, %._crit_edge ]
  ret ptr %.075
}